; Function Attrs: mustprogress nounwind uwtable
define internal void @_ZN3ade7details8Metadata14MetadataHolderIN12_GLOBAL__N_123StreamingCreateFunctionEED0Ev(ptr noundef nonnull align 8 dereferenceable(40) %0) unnamed_addr #4 align 2 personality ptr @__gxx_personality_v0 {
  store ptr getelementptr inbounds inrange(-16, 24) (i8, ptr @_ZTVN3ade7details8Metadata14MetadataHolderIN12_GLOBAL__N_123StreamingCreateFunctionEEE, i64 16), ptr %0, align 8
  %2 = getelementptr inbounds i8, ptr %0, i64 24
  %3 = load ptr, ptr %2, align 8
  %.not.i.i.i.i = icmp eq ptr %3, null
  br i1 %.not.i.i.i.i, label %_ZN3ade7details8Metadata14MetadataHolderIN12_GLOBAL__N_123StreamingCreateFunctionEED2Ev.exit, label %4

4:                                                ; preds = %1
  %5 = getelementptr inbounds i8, ptr %0, i64 8
  %6 = invoke noundef zeroext i1 %3(ptr noundef nonnull align 8 dereferenceable(16) %5, ptr noundef nonnull align 8 dereferenceable(16) %5, i32 noundef 3)
          to label %_ZN3ade7details8Metadata14MetadataHolderIN12_GLOBAL__N_123StreamingCreateFunctionEED2Ev.exit unwind label %7

7:                                                ; preds = %4
  %8 = landingpad { ptr, i32 }
          catch ptr null
  %9 = extractvalue { ptr, i32 } %8, 0
  tail call void @__clang_call_terminate(ptr %9) #28
  unreachable

_ZN3ade7details8Metadata14MetadataHolderIN12_GLOBAL__N_123StreamingCreateFunctionEED2Ev.exit: ; preds = %1, %4
  tail call void @_ZdlPv(ptr noundef nonnull %0) #29
  ret void
}